target datalayout = "e-m:e-p270:32:32-p271:32:32-p272:64:64-i64:64-i128:128-f80:128-n8:16:32:64-S128"
target triple = "x86_64-unknown-linux-gnu"

%class.model_core = type { ptr, ptr, i32, [4 x i8], %class.obj_map, %class.obj_map.0, %class.ptr_vector, %class.ptr_vector, %class.ptr_vector }
%class.obj_map = type { %class.core_hashtable }
%class.core_hashtable = type <{ ptr, i32, i32, i32, [4 x i8] }>
%class.obj_map.0 = type { %class.core_hashtable.1 }
%class.core_hashtable.1 = type <{ ptr, i32, i32, i32, [4 x i8] }>
%class.ptr_vector = type { %class.vector }
%class.vector = type { ptr }
%"class.core_hashtable<obj_map<func_decl, std::pair<unsigned int, expr *>>::obj_map_entry, obj_hash<obj_map<func_decl, std::pair<unsigned int, expr *>>::key_data>, default_eq<obj_map<func_decl, std::pair<unsigned int, expr *>>::key_data>>::iterator" = type { ptr, ptr }
%"struct.obj_map<func_decl, std::pair<unsigned int, expr *>>::key_data" = type { ptr, %"struct.std::pair" }
%"struct.std::pair" = type { i32, ptr }
%"class.obj_map<func_decl, std::pair<unsigned int, expr *>>::obj_map_entry" = type { %"struct.obj_map<func_decl, std::pair<unsigned int, expr *>>::key_data" }

; Function Attrs: mustprogress nounwind uwtable
define linkonce_odr hidden noundef zeroext i1 @_ZNK7obj_mapI9func_declSt4pairIjP4exprEE13obj_map_entry7is_usedEv(ptr noundef nonnull align 8 dereferenceable(24) %this) #5 comdat align 2 {
entry:
  %this.addr = alloca ptr, align 8
  store ptr %this, ptr %this.addr, align 8
  %this1 = load ptr, ptr %this.addr, align 8
  %m_data = getelementptr inbounds %"class.obj_map<func_decl, std::pair<unsigned int, expr *>>::obj_map_entry", ptr %this1, i32 0, i32 0
  %m_key = getelementptr inbounds %"struct.obj_map<func_decl, std::pair<unsigned int, expr *>>::key_data", ptr %m_data, i32 0, i32 0
  %0 = load ptr, ptr %m_key, align 8
  %cmp = icmp ne ptr %0, null
  br i1 %cmp, label %land.rhs, label %land.end

land.rhs:                                         ; preds = %entry
  %m_data2 = getelementptr inbounds %"class.obj_map<func_decl, std::pair<unsigned int, expr *>>::obj_map_entry", ptr %this1, i32 0, i32 0
  %m_key3 = getelementptr inbounds %"struct.obj_map<func_decl, std::pair<unsigned int, expr *>>::key_data", ptr %m_data2, i32 0, i32 0
  %1 = load ptr, ptr %m_key3, align 8
  %cmp4 = icmp ne ptr %1, inttoptr (i64 1 to ptr)
  br label %land.end

land.end:                                         ; preds = %land.rhs, %entry
  %2 = phi i1 [ false, %entry ], [ %cmp4, %land.rhs ]
  ret i1 %2
}

; Function Attrs: mustprogress uwtable
define linkonce_odr hidden void @_ZN14core_hashtableIN7obj_mapI9func_declSt4pairIjP4exprEE13obj_map_entryE8obj_hashINS6_8key_dataEE10default_eqIS9_EE8iteratorC2EPS7_SF_(ptr noundef nonnull align 8 dereferenceable(16) %this, ptr noundef %start, ptr noundef %end) unnamed_addr #4 comdat align 2 {
entry:
  %this.addr = alloca ptr, align 8
  %start.addr = alloca ptr, align 8
  %end.addr = alloca ptr, align 8
  store ptr %this, ptr %this.addr, align 8
  store ptr %start, ptr %start.addr, align 8
  store ptr %end, ptr %end.addr, align 8
  %this1 = load ptr, ptr %this.addr, align 8
  %m_curr = getelementptr inbounds %"class.core_hashtable<obj_map<func_decl, std::pair<unsigned int, expr *>>::obj_map_entry, obj_hash<obj_map<func_decl, std::pair<unsigned int, expr *>>::key_data>, default_eq<obj_map<func_decl, std::pair<unsigned int, expr *>>::key_data>>::iterator", ptr %this1, i32 0, i32 0
  %0 = load ptr, ptr %start.addr, align 8
  store ptr %0, ptr %m_curr, align 8
  %m_end = getelementptr inbounds %"class.core_hashtable<obj_map<func_decl, std::pair<unsigned int, expr *>>::obj_map_entry, obj_hash<obj_map<func_decl, std::pair<unsigned int, expr *>>::key_data>, default_eq<obj_map<func_decl, std::pair<unsigned int, expr *>>::key_data>>::iterator", ptr %this1, i32 0, i32 1
  %1 = load ptr, ptr %end.addr, align 8
  store ptr %1, ptr %m_end, align 8
  call void @_ZN14core_hashtableIN7obj_mapI9func_declSt4pairIjP4exprEE13obj_map_entryE8obj_hashINS6_8key_dataEE10default_eqIS9_EE8iterator12move_to_usedEv(ptr noundef nonnull align 8 dereferenceable(16) %this1)
  ret void
}

; Function Attrs: mustprogress nounwind uwtable
define linkonce_odr hidden void @_ZN14core_hashtableIN7obj_mapI9func_declSt4pairIjP4exprEE13obj_map_entryE8obj_hashINS6_8key_dataEE10default_eqIS9_EE8iterator12move_to_usedEv(ptr noundef nonnull align 8 dereferenceable(16) %this) #5 comdat align 2 {
entry:
  %this.addr = alloca ptr, align 8
  store ptr %this, ptr %this.addr, align 8
  %this1 = load ptr, ptr %this.addr, align 8
  br label %while.cond

while.cond:                                       ; preds = %while.body, %entry
  %m_curr = getelementptr inbounds %"class.core_hashtable<obj_map<func_decl, std::pair<unsigned int, expr *>>::obj_map_entry, obj_hash<obj_map<func_decl, std::pair<unsigned int, expr *>>::key_data>, default_eq<obj_map<func_decl, std::pair<unsigned int, expr *>>::key_data>>::iterator", ptr %this1, i32 0, i32 0
  %0 = load ptr, ptr %m_curr, align 8
  %m_end = getelementptr inbounds %"class.core_hashtable<obj_map<func_decl, std::pair<unsigned int, expr *>>::obj_map_entry, obj_hash<obj_map<func_decl, std::pair<unsigned int, expr *>>::key_data>, default_eq<obj_map<func_decl, std::pair<unsigned int, expr *>>::key_data>>::iterator", ptr %this1, i32 0, i32 1
  %1 = load ptr, ptr %m_end, align 8
  %cmp = icmp ne ptr %0, %1
  br i1 %cmp, label %land.rhs, label %land.end

land.rhs:                                         ; preds = %while.cond
  %m_curr2 = getelementptr inbounds %"class.core_hashtable<obj_map<func_decl, std::pair<unsigned int, expr *>>::obj_map_entry, obj_hash<obj_map<func_decl, std::pair<unsigned int, expr *>>::key_data>, default_eq<obj_map<func_decl, std::pair<unsigned int, expr *>>::key_data>>::iterator", ptr %this1, i32 0, i32 0
  %2 = load ptr, ptr %m_curr2, align 8
  %call = call noundef zeroext i1 @_ZNK7obj_mapI9func_declSt4pairIjP4exprEE13obj_map_entry7is_usedEv(ptr noundef nonnull align 8 dereferenceable(24) %2)
  %lnot = xor i1 %call, true
  br label %land.end

land.end:                                         ; preds = %land.rhs, %while.cond
  %3 = phi i1 [ false, %while.cond ], [ %lnot, %land.rhs ]
  br i1 %3, label %while.body, label %while.end

while.body:                                       ; preds = %land.end
  %m_curr3 = getelementptr inbounds %"class.core_hashtable<obj_map<func_decl, std::pair<unsigned int, expr *>>::obj_map_entry, obj_hash<obj_map<func_decl, std::pair<unsigned int, expr *>>::key_data>, default_eq<obj_map<func_decl, std::pair<unsigned int, expr *>>::key_data>>::iterator", ptr %this1, i32 0, i32 0
  %4 = load ptr, ptr %m_curr3, align 8
  %incdec.ptr = getelementptr inbounds %"class.obj_map<func_decl, std::pair<unsigned int, expr *>>::obj_map_entry", ptr %4, i32 1
  store ptr %incdec.ptr, ptr %m_curr3, align 8
  br label %while.cond, !llvm.loop !71

while.end:                                        ; preds = %land.end
  ret void
}

; Function Attrs: mustprogress nounwind uwtable
define linkonce_odr hidden noundef nonnull align 8 dereferenceable(24) ptr @_ZN7obj_mapI9func_declSt4pairIjP4exprEE13obj_map_entry8get_dataEv(ptr noundef nonnull align 8 dereferenceable(24) %this) #5 comdat align 2 {
entry:
  %this.addr = alloca ptr, align 8
  store ptr %this, ptr %this.addr, align 8
  %this1 = load ptr, ptr %this.addr, align 8
  %m_data = getelementptr inbounds %"class.obj_map<func_decl, std::pair<unsigned int, expr *>>::obj_map_entry", ptr %this1, i32 0, i32 0
  ret ptr %m_data
}

; Function Attrs: mustprogress uwtable
define linkonce_odr hidden { ptr, ptr } @_ZNK14core_hashtableIN7obj_mapI9func_declSt4pairIjP4exprEE13obj_map_entryE8obj_hashINS6_8key_dataEE10default_eqIS9_EE3endEv(ptr noundef nonnull align 8 dereferenceable(20) %this) #4 comdat align 2 {
entry:
  %retval = alloca %"class.core_hashtable<obj_map<func_decl, std::pair<unsigned int, expr *>>::obj_map_entry, obj_hash<obj_map<func_decl, std::pair<unsigned int, expr *>>::key_data>, default_eq<obj_map<func_decl, std::pair<unsigned int, expr *>>::key_data>>::iterator", align 8
  %this.addr = alloca ptr, align 8
  store ptr %this, ptr %this.addr, align 8
  %this1 = load ptr, ptr %this.addr, align 8
  %m_table = getelementptr inbounds %class.core_hashtable, ptr %this1, i32 0, i32 0
  %0 = load ptr, ptr %m_table, align 8
  %m_capacity = getelementptr inbounds %class.core_hashtable, ptr %this1, i32 0, i32 1
  %1 = load i32, ptr %m_capacity, align 8
  %idx.ext = zext i32 %1 to i64
  %add.ptr = getelementptr inbounds %"class.obj_map<func_decl, std::pair<unsigned int, expr *>>::obj_map_entry", ptr %0, i64 %idx.ext
  %m_table2 = getelementptr inbounds %class.core_hashtable, ptr %this1, i32 0, i32 0
  %2 = load ptr, ptr %m_table2, align 8
  %m_capacity3 = getelementptr inbounds %class.core_hashtable, ptr %this1, i32 0, i32 1
  %3 = load i32, ptr %m_capacity3, align 8
  %idx.ext4 = zext i32 %3 to i64
  %add.ptr5 = getelementptr inbounds %"class.obj_map<func_decl, std::pair<unsigned int, expr *>>::obj_map_entry", ptr %2, i64 %idx.ext4
  call void @_ZN14core_hashtableIN7obj_mapI9func_declSt4pairIjP4exprEE13obj_map_entryE8obj_hashINS6_8key_dataEE10default_eqIS9_EE8iteratorC2EPS7_SF_(ptr noundef nonnull align 8 dereferenceable(16) %retval, ptr noundef %add.ptr, ptr noundef %add.ptr5)
  %4 = load { ptr, ptr }, ptr %retval, align 8
  ret { ptr, ptr } %4
}

; Function Attrs: mustprogress uwtable
define linkonce_odr hidden { ptr, ptr } @_ZNK14core_hashtableIN7obj_mapI9func_declSt4pairIjP4exprEE13obj_map_entryE8obj_hashINS6_8key_dataEE10default_eqIS9_EE5beginEv(ptr noundef nonnull align 8 dereferenceable(20) %this) #4 comdat align 2 {
entry:
  %retval = alloca %"class.core_hashtable<obj_map<func_decl, std::pair<unsigned int, expr *>>::obj_map_entry, obj_hash<obj_map<func_decl, std::pair<unsigned int, expr *>>::key_data>, default_eq<obj_map<func_decl, std::pair<unsigned int, expr *>>::key_data>>::iterator", align 8
  %this.addr = alloca ptr, align 8
  store ptr %this, ptr %this.addr, align 8
  %this1 = load ptr, ptr %this.addr, align 8
  %m_table = getelementptr inbounds %class.core_hashtable, ptr %this1, i32 0, i32 0
  %0 = load ptr, ptr %m_table, align 8
  %m_table2 = getelementptr inbounds %class.core_hashtable, ptr %this1, i32 0, i32 0
  %1 = load ptr, ptr %m_table2, align 8
  %m_capacity = getelementptr inbounds %class.core_hashtable, ptr %this1, i32 0, i32 1
  %2 = load i32, ptr %m_capacity, align 8
  %idx.ext = zext i32 %2 to i64
  %add.ptr = getelementptr inbounds %"class.obj_map<func_decl, std::pair<unsigned int, expr *>>::obj_map_entry", ptr %1, i64 %idx.ext
  call void @_ZN14core_hashtableIN7obj_mapI9func_declSt4pairIjP4exprEE13obj_map_entryE8obj_hashINS6_8key_dataEE10default_eqIS9_EE8iteratorC2EPS7_SF_(ptr noundef nonnull align 8 dereferenceable(16) %retval, ptr noundef %0, ptr noundef %add.ptr)
  %3 = load { ptr, ptr }, ptr %retval, align 8
  ret { ptr, ptr } %3
}

; Function Attrs: mustprogress nounwind uwtable
define linkonce_odr hidden noundef nonnull align 8 dereferenceable(16) ptr @_ZN14core_hashtableIN7obj_mapI9func_declSt4pairIjP4exprEE13obj_map_entryE8obj_hashINS6_8key_dataEE10default_eqIS9_EE8iteratorppEv(ptr noundef nonnull align 8 dereferenceable(16) %this) #5 comdat align 2 {
entry:
  %this.addr = alloca ptr, align 8
  store ptr %this, ptr %this.addr, align 8
  %this1 = load ptr, ptr %this.addr, align 8
  %m_curr = getelementptr inbounds %"class.core_hashtable<obj_map<func_decl, std::pair<unsigned int, expr *>>::obj_map_entry, obj_hash<obj_map<func_decl, std::pair<unsigned int, expr *>>::key_data>, default_eq<obj_map<func_decl, std::pair<unsigned int, expr *>>::key_data>>::iterator", ptr %this1, i32 0, i32 0
  %0 = load ptr, ptr %m_curr, align 8
  %incdec.ptr = getelementptr inbounds %"class.obj_map<func_decl, std::pair<unsigned int, expr *>>::obj_map_entry", ptr %0, i32 1
  store ptr %incdec.ptr, ptr %m_curr, align 8
  call void @_ZN14core_hashtableIN7obj_mapI9func_declSt4pairIjP4exprEE13obj_map_entryE8obj_hashINS6_8key_dataEE10default_eqIS9_EE8iterator12move_to_usedEv(ptr noundef nonnull align 8 dereferenceable(16) %this1)
  ret ptr %this1
}

; Function Attrs: mustprogress nounwind uwtable
define linkonce_odr hidden noundef nonnull align 8 dereferenceable(24) ptr @_ZN14core_hashtableIN7obj_mapI9func_declSt4pairIjP4exprEE13obj_map_entryE8obj_hashINS6_8key_dataEE10default_eqIS9_EE8iteratordeEv(ptr noundef nonnull align 8 dereferenceable(16) %this) #5 comdat align 2 {
entry:
  %this.addr = alloca ptr, align 8
  store ptr %this, ptr %this.addr, align 8
  %this1 = load ptr, ptr %this.addr, align 8
  %m_curr = getelementptr inbounds %"class.core_hashtable<obj_map<func_decl, std::pair<unsigned int, expr *>>::obj_map_entry, obj_hash<obj_map<func_decl, std::pair<unsigned int, expr *>>::key_data>, default_eq<obj_map<func_decl, std::pair<unsigned int, expr *>>::key_data>>::iterator", ptr %this1, i32 0, i32 0
  %0 = load ptr, ptr %m_curr, align 8
  %call = call noundef nonnull align 8 dereferenceable(24) ptr @_ZN7obj_mapI9func_declSt4pairIjP4exprEE13obj_map_entry8get_dataEv(ptr noundef nonnull align 8 dereferenceable(24) %0)
  ret ptr %call
}

; Function Attrs: mustprogress nounwind uwtable
define linkonce_odr hidden noundef zeroext i1 @_ZNK14core_hashtableIN7obj_mapI9func_declSt4pairIjP4exprEE13obj_map_entryE8obj_hashINS6_8key_dataEE10default_eqIS9_EE8iteratorneERKSE_(ptr noundef nonnull align 8 dereferenceable(16) %this, ptr noundef nonnull align 8 dereferenceable(16) %it) #5 comdat align 2 {
entry:
  %this.addr = alloca ptr, align 8
  %it.addr = alloca ptr, align 8
  store ptr %this, ptr %this.addr, align 8
  store ptr %it, ptr %it.addr, align 8
  %this1 = load ptr, ptr %this.addr, align 8
  %m_curr = getelementptr inbounds %"class.core_hashtable<obj_map<func_decl, std::pair<unsigned int, expr *>>::obj_map_entry, obj_hash<obj_map<func_decl, std::pair<unsigned int, expr *>>::key_data>, default_eq<obj_map<func_decl, std::pair<unsigned int, expr *>>::key_data>>::iterator", ptr %this1, i32 0, i32 0
  %0 = load ptr, ptr %m_curr, align 8
  %1 = load ptr, ptr %it.addr, align 8
  %m_curr2 = getelementptr inbounds %"class.core_hashtable<obj_map<func_decl, std::pair<unsigned int, expr *>>::obj_map_entry, obj_hash<obj_map<func_decl, std::pair<unsigned int, expr *>>::key_data>, default_eq<obj_map<func_decl, std::pair<unsigned int, expr *>>::key_data>>::iterator", ptr %1, i32 0, i32 0
  %2 = load ptr, ptr %m_curr2, align 8
  %cmp = icmp ne ptr %0, %2
  ret i1 %cmp
}

; Function Attrs: mustprogress uwtable
define linkonce_odr hidden { ptr, ptr } @_ZNK7obj_mapI9func_declSt4pairIjP4exprEE3endEv(ptr noundef nonnull align 8 dereferenceable(24) %this) #4 comdat align 2 {
entry:
  %retval = alloca %"class.core_hashtable<obj_map<func_decl, std::pair<unsigned int, expr *>>::obj_map_entry, obj_hash<obj_map<func_decl, std::pair<unsigned int, expr *>>::key_data>, default_eq<obj_map<func_decl, std::pair<unsigned int, expr *>>::key_data>>::iterator", align 8
  %this.addr = alloca ptr, align 8
  store ptr %this, ptr %this.addr, align 8
  %this1 = load ptr, ptr %this.addr, align 8
  %m_table = getelementptr inbounds %class.obj_map, ptr %this1, i32 0, i32 0
  %call = call { ptr, ptr } @_ZNK14core_hashtableIN7obj_mapI9func_declSt4pairIjP4exprEE13obj_map_entryE8obj_hashINS6_8key_dataEE10default_eqIS9_EE3endEv(ptr noundef nonnull align 8 dereferenceable(20) %m_table)
  %0 = getelementptr inbounds { ptr, ptr }, ptr %retval, i32 0, i32 0
  %1 = extractvalue { ptr, ptr } %call, 0
  store ptr %1, ptr %0, align 8
  %2 = getelementptr inbounds { ptr, ptr }, ptr %retval, i32 0, i32 1
  %3 = extractvalue { ptr, ptr } %call, 1
  store ptr %3, ptr %2, align 8
  %4 = load { ptr, ptr }, ptr %retval, align 8
  ret { ptr, ptr } %4
}

; Function Attrs: mustprogress uwtable
define linkonce_odr hidden { ptr, ptr } @_ZNK7obj_mapI9func_declSt4pairIjP4exprEE5beginEv(ptr noundef nonnull align 8 dereferenceable(24) %this) #4 comdat align 2 {
entry:
  %retval = alloca %"class.core_hashtable<obj_map<func_decl, std::pair<unsigned int, expr *>>::obj_map_entry, obj_hash<obj_map<func_decl, std::pair<unsigned int, expr *>>::key_data>, default_eq<obj_map<func_decl, std::pair<unsigned int, expr *>>::key_data>>::iterator", align 8
  %this.addr = alloca ptr, align 8
  store ptr %this, ptr %this.addr, align 8
  %this1 = load ptr, ptr %this.addr, align 8
  %m_table = getelementptr inbounds %class.obj_map, ptr %this1, i32 0, i32 0
  %call = call { ptr, ptr } @_ZNK14core_hashtableIN7obj_mapI9func_declSt4pairIjP4exprEE13obj_map_entryE8obj_hashINS6_8key_dataEE10default_eqIS9_EE5beginEv(ptr noundef nonnull align 8 dereferenceable(20) %m_table)
  %0 = getelementptr inbounds { ptr, ptr }, ptr %retval, i32 0, i32 0
  %1 = extractvalue { ptr, ptr } %call, 0
  store ptr %1, ptr %0, align 8
  %2 = getelementptr inbounds { ptr, ptr }, ptr %retval, i32 0, i32 1
  %3 = extractvalue { ptr, ptr } %call, 1
  store ptr %3, ptr %2, align 8
  %4 = load { ptr, ptr }, ptr %retval, align 8
  ret { ptr, ptr } %4
}

; Function Attrs: mustprogress uwtable
define hidden void @_ZN5model18copy_const_interpsERKS_(ptr noundef nonnull align 8 dereferenceable(160) %this, ptr noundef nonnull align 8 dereferenceable(160) %source) #4 align 2 {
entry:
  %this.addr = alloca ptr, align 8
  %source.addr = alloca ptr, align 8
  %__range1 = alloca ptr, align 8
  %__begin1 = alloca %"class.core_hashtable<obj_map<func_decl, std::pair<unsigned int, expr *>>::obj_map_entry, obj_hash<obj_map<func_decl, std::pair<unsigned int, expr *>>::key_data>, default_eq<obj_map<func_decl, std::pair<unsigned int, expr *>>::key_data>>::iterator", align 8
  %__end1 = alloca %"class.core_hashtable<obj_map<func_decl, std::pair<unsigned int, expr *>>::obj_map_entry, obj_hash<obj_map<func_decl, std::pair<unsigned int, expr *>>::key_data>, default_eq<obj_map<func_decl, std::pair<unsigned int, expr *>>::key_data>>::iterator", align 8
  %kv = alloca ptr, align 8
  store ptr %this, ptr %this.addr, align 8
  store ptr %source, ptr %source.addr, align 8
  %this1 = load ptr, ptr %this.addr, align 8
  %0 = load ptr, ptr %source.addr, align 8
  %m_interp = getelementptr inbounds %class.model_core, ptr %0, i32 0, i32 4
  store ptr %m_interp, ptr %__range1, align 8
  %1 = load ptr, ptr %__range1, align 8
  %call = call { ptr, ptr } @_ZNK7obj_mapI9func_declSt4pairIjP4exprEE5beginEv(ptr noundef nonnull align 8 dereferenceable(24) %1)
  %2 = getelementptr inbounds { ptr, ptr }, ptr %__begin1, i32 0, i32 0
  %3 = extractvalue { ptr, ptr } %call, 0
  store ptr %3, ptr %2, align 8
  %4 = getelementptr inbounds { ptr, ptr }, ptr %__begin1, i32 0, i32 1
  %5 = extractvalue { ptr, ptr } %call, 1
  store ptr %5, ptr %4, align 8
  %6 = load ptr, ptr %__range1, align 8
  %call2 = call { ptr, ptr } @_ZNK7obj_mapI9func_declSt4pairIjP4exprEE3endEv(ptr noundef nonnull align 8 dereferenceable(24) %6)
  %7 = getelementptr inbounds { ptr, ptr }, ptr %__end1, i32 0, i32 0
  %8 = extractvalue { ptr, ptr } %call2, 0
  store ptr %8, ptr %7, align 8
  %9 = getelementptr inbounds { ptr, ptr }, ptr %__end1, i32 0, i32 1
  %10 = extractvalue { ptr, ptr } %call2, 1
  store ptr %10, ptr %9, align 8
  br label %for.cond

for.cond:                                         ; preds = %for.inc, %entry
  %call3 = call noundef zeroext i1 @_ZNK14core_hashtableIN7obj_mapI9func_declSt4pairIjP4exprEE13obj_map_entryE8obj_hashINS6_8key_dataEE10default_eqIS9_EE8iteratorneERKSE_(ptr noundef nonnull align 8 dereferenceable(16) %__begin1, ptr noundef nonnull align 8 dereferenceable(16) %__end1)
  br i1 %call3, label %for.body, label %for.end

for.body:                                         ; preds = %for.cond
  %call4 = call noundef nonnull align 8 dereferenceable(24) ptr @_ZN14core_hashtableIN7obj_mapI9func_declSt4pairIjP4exprEE13obj_map_entryE8obj_hashINS6_8key_dataEE10default_eqIS9_EE8iteratordeEv(ptr noundef nonnull align 8 dereferenceable(16) %__begin1)
  store ptr %call4, ptr %kv, align 8
  %11 = load ptr, ptr %kv, align 8
  %m_key = getelementptr inbounds %"struct.obj_map<func_decl, std::pair<unsigned int, expr *>>::key_data", ptr %11, i32 0, i32 0
  %12 = load ptr, ptr %m_key, align 8
  %13 = load ptr, ptr %kv, align 8
  %m_value = getelementptr inbounds %"struct.obj_map<func_decl, std::pair<unsigned int, expr *>>::key_data", ptr %13, i32 0, i32 1
  %second = getelementptr inbounds %"struct.std::pair", ptr %m_value, i32 0, i32 1
  %14 = load ptr, ptr %second, align 8
  call void @_ZN10model_core13register_declEP9func_declP4expr(ptr noundef nonnull align 8 dereferenceable(96) %this1, ptr noundef %12, ptr noundef %14)
  br label %for.inc

for.inc:                                          ; preds = %for.body
  %call5 = call noundef nonnull align 8 dereferenceable(16) ptr @_ZN14core_hashtableIN7obj_mapI9func_declSt4pairIjP4exprEE13obj_map_entryE8obj_hashINS6_8key_dataEE10default_eqIS9_EE8iteratorppEv(ptr noundef nonnull align 8 dereferenceable(16) %__begin1)
  br label %for.cond

for.end:                                          ; preds = %for.cond
  ret void
}